target datalayout = "e-m:e-p270:32:32-p271:32:32-p272:64:64-i64:64-i128:128-f80:128-n8:16:32:64-S128"
target triple = "x86_64-unknown-linux-gnu"

%"class.boost::detail::shared_count" = type { ptr }
%"class.boost::shared_ptr.29" = type { ptr, %"class.boost::detail::shared_count" }
%"class.boost::shared_ptr.32" = type { ptr, %"class.boost::detail::shared_count" }
%"class.boost::detail::sp_counted_base" = type { ptr, i32, i32 }

@_ZTIN8QuantLib24YoYInflationCouponPricerE = external constant ptr

; Function Attrs: inlinehint mustprogress nounwind uwtable
define linkonce_odr void @_ZN5boost6detail16atomic_incrementEPj(ptr noundef %pw) #5 comdat {
entry:
  %pw.addr = alloca ptr, align 8
  %.atomictmp = alloca i32, align 4
  %atomic-temp = alloca i32, align 4
  store ptr %pw, ptr %pw.addr, align 8, !tbaa !3
  %0 = load ptr, ptr %pw.addr, align 8, !tbaa !3
  store i32 1, ptr %.atomictmp, align 4, !tbaa !32
  %1 = load i32, ptr %.atomictmp, align 4
  %2 = atomicrmw add ptr %0, i32 %1 monotonic, align 4
  store i32 %2, ptr %atomic-temp, align 4
  ret void
}

; Function Attrs: mustprogress uwtable
define linkonce_odr void @_ZN5boost6detail15sp_counted_base12weak_releaseEv(ptr noundef nonnull align 8 dereferenceable(16) %this) #2 comdat align 2 {
entry:
  %this.addr = alloca ptr, align 8
  store ptr %this, ptr %this.addr, align 8, !tbaa !3
  %this1 = load ptr, ptr %this.addr, align 8
  %weak_count_ = getelementptr inbounds nuw %"class.boost::detail::sp_counted_base", ptr %this1, i32 0, i32 2
  %call = call noundef i32 @_ZN5boost6detail16atomic_decrementEPj(ptr noundef %weak_count_)
  %cmp = icmp eq i32 %call, 1
  br i1 %cmp, label %if.then, label %if.end

if.then:                                          ; preds = %entry
  %vtable = load ptr, ptr %this1, align 8, !tbaa !20
  %vfn = getelementptr inbounds ptr, ptr %vtable, i64 3
  %0 = load ptr, ptr %vfn, align 8
  call void %0(ptr noundef nonnull align 8 dereferenceable(16) %this1)
  br label %if.end

if.end:                                           ; preds = %if.then, %entry
  ret void
}

; Function Attrs: inlinehint mustprogress nounwind uwtable
define linkonce_odr noundef i32 @_ZN5boost6detail16atomic_decrementEPj(ptr noundef %pw) #5 comdat {
entry:
  %pw.addr = alloca ptr, align 8
  %.atomictmp = alloca i32, align 4
  %atomic-temp = alloca i32, align 4
  store ptr %pw, ptr %pw.addr, align 8, !tbaa !3
  %0 = load ptr, ptr %pw.addr, align 8, !tbaa !3
  store i32 1, ptr %.atomictmp, align 4, !tbaa !32
  %1 = load i32, ptr %.atomictmp, align 4
  %2 = atomicrmw sub ptr %0, i32 %1 acq_rel, align 4
  store i32 %2, ptr %atomic-temp, align 4
  %3 = load i32, ptr %atomic-temp, align 4, !tbaa !32
  ret i32 %3
}

; Function Attrs: mustprogress uwtable
define linkonce_odr void @_ZN5boost6detail15sp_counted_base12add_ref_copyEv(ptr noundef nonnull align 8 dereferenceable(16) %this) #2 comdat align 2 {
entry:
  %this.addr = alloca ptr, align 8
  store ptr %this, ptr %this.addr, align 8, !tbaa !3
  %this1 = load ptr, ptr %this.addr, align 8
  %use_count_ = getelementptr inbounds nuw %"class.boost::detail::sp_counted_base", ptr %this1, i32 0, i32 1
  call void @_ZN5boost6detail16atomic_incrementEPj(ptr noundef %use_count_)
  ret void
}

; Function Attrs: mustprogress uwtable
define linkonce_odr void @_ZN5boost6detail15sp_counted_base7releaseEv(ptr noundef nonnull align 8 dereferenceable(16) %this) #2 comdat align 2 {
entry:
  %this.addr = alloca ptr, align 8
  store ptr %this, ptr %this.addr, align 8, !tbaa !3
  %this1 = load ptr, ptr %this.addr, align 8
  %use_count_ = getelementptr inbounds nuw %"class.boost::detail::sp_counted_base", ptr %this1, i32 0, i32 1
  %call = call noundef i32 @_ZN5boost6detail16atomic_decrementEPj(ptr noundef %use_count_)
  %cmp = icmp eq i32 %call, 1
  br i1 %cmp, label %if.then, label %if.end

if.then:                                          ; preds = %entry
  %vtable = load ptr, ptr %this1, align 8, !tbaa !20
  %vfn = getelementptr inbounds ptr, ptr %vtable, i64 2
  %0 = load ptr, ptr %vfn, align 8
  call void %0(ptr noundef nonnull align 8 dereferenceable(16) %this1)
  call void @_ZN5boost6detail15sp_counted_base12weak_releaseEv(ptr noundef nonnull align 8 dereferenceable(16) %this1)
  br label %if.end

if.end:                                           ; preds = %if.then, %entry
  ret void
}

; Function Attrs: mustprogress nounwind uwtable
define linkonce_odr void @_ZN5boost6detail12shared_countC2Ev(ptr noundef nonnull align 8 dereferenceable(8) %this) unnamed_addr #1 comdat align 2 {
entry:
  %this.addr = alloca ptr, align 8
  store ptr %this, ptr %this.addr, align 8, !tbaa !3
  %this1 = load ptr, ptr %this.addr, align 8
  %pi_ = getelementptr inbounds nuw %"class.boost::detail::shared_count", ptr %this1, i32 0, i32 0
  store ptr null, ptr %pi_, align 8, !tbaa !141
  ret void
}

; Function Attrs: mustprogress nounwind uwtable
define linkonce_odr void @_ZN5boost6detail12shared_countC2ERKS1_(ptr noundef nonnull align 8 dereferenceable(8) %this, ptr noundef nonnull align 8 dereferenceable(8) %r) unnamed_addr #1 comdat align 2 personality ptr @__gxx_personality_v0 {
entry:
  %this.addr = alloca ptr, align 8
  %r.addr = alloca ptr, align 8
  store ptr %this, ptr %this.addr, align 8, !tbaa !3
  store ptr %r, ptr %r.addr, align 8, !tbaa !3
  %this1 = load ptr, ptr %this.addr, align 8
  %pi_ = getelementptr inbounds nuw %"class.boost::detail::shared_count", ptr %this1, i32 0, i32 0
  %0 = load ptr, ptr %r.addr, align 8, !tbaa !3
  %pi_2 = getelementptr inbounds nuw %"class.boost::detail::shared_count", ptr %0, i32 0, i32 0
  %1 = load ptr, ptr %pi_2, align 8, !tbaa !141
  store ptr %1, ptr %pi_, align 8, !tbaa !141
  %pi_3 = getelementptr inbounds nuw %"class.boost::detail::shared_count", ptr %this1, i32 0, i32 0
  %2 = load ptr, ptr %pi_3, align 8, !tbaa !141
  %cmp = icmp ne ptr %2, null
  br i1 %cmp, label %if.then, label %if.end

if.then:                                          ; preds = %entry
  %pi_4 = getelementptr inbounds nuw %"class.boost::detail::shared_count", ptr %this1, i32 0, i32 0
  %3 = load ptr, ptr %pi_4, align 8, !tbaa !141
  invoke void @_ZN5boost6detail15sp_counted_base12add_ref_copyEv(ptr noundef nonnull align 8 dereferenceable(16) %3)
          to label %invoke.cont unwind label %terminate.lpad

invoke.cont:                                      ; preds = %if.then
  br label %if.end

if.end:                                           ; preds = %invoke.cont, %entry
  ret void

terminate.lpad:                                   ; preds = %if.then
  %4 = landingpad { ptr, i32 }
          catch ptr null
  %5 = extractvalue { ptr, i32 } %4, 0
  call void @__clang_call_terminate(ptr %5) #23
  unreachable
}

; Function Attrs: mustprogress nounwind uwtable
define linkonce_odr void @_ZN5boost6detail12shared_countD2Ev(ptr noundef nonnull align 8 dereferenceable(8) %this) unnamed_addr #1 comdat align 2 personality ptr @__gxx_personality_v0 {
entry:
  %this.addr = alloca ptr, align 8
  store ptr %this, ptr %this.addr, align 8, !tbaa !3
  %this1 = load ptr, ptr %this.addr, align 8
  %pi_ = getelementptr inbounds nuw %"class.boost::detail::shared_count", ptr %this1, i32 0, i32 0
  %0 = load ptr, ptr %pi_, align 8, !tbaa !141
  %cmp = icmp ne ptr %0, null
  br i1 %cmp, label %if.then, label %if.end

if.then:                                          ; preds = %entry
  %pi_2 = getelementptr inbounds nuw %"class.boost::detail::shared_count", ptr %this1, i32 0, i32 0
  %1 = load ptr, ptr %pi_2, align 8, !tbaa !141
  invoke void @_ZN5boost6detail15sp_counted_base7releaseEv(ptr noundef nonnull align 8 dereferenceable(16) %1)
          to label %invoke.cont unwind label %terminate.lpad

invoke.cont:                                      ; preds = %if.then
  br label %if.end

if.end:                                           ; preds = %invoke.cont, %entry
  ret void

terminate.lpad:                                   ; preds = %if.then
  %2 = landingpad { ptr, i32 }
          catch ptr null
  %3 = extractvalue { ptr, i32 } %2, 0
  call void @__clang_call_terminate(ptr %3) #23
  unreachable
}

; Function Attrs: mustprogress nounwind uwtable
define linkonce_odr void @_ZN5boost10shared_ptrIN8QuantLib24YoYInflationCouponPricerEEC2Ev(ptr noundef nonnull align 8 dereferenceable(16) %this) unnamed_addr #1 comdat align 2 {
entry:
  %this.addr = alloca ptr, align 8
  store ptr %this, ptr %this.addr, align 8, !tbaa !3
  %this1 = load ptr, ptr %this.addr, align 8
  %px = getelementptr inbounds nuw %"class.boost::shared_ptr.32", ptr %this1, i32 0, i32 0
  store ptr null, ptr %px, align 8, !tbaa !47
  %pn = getelementptr inbounds nuw %"class.boost::shared_ptr.32", ptr %this1, i32 0, i32 1
  call void @_ZN5boost6detail12shared_countC2Ev(ptr noundef nonnull align 8 dereferenceable(8) %pn) #14
  ret void
}

; Function Attrs: mustprogress nounwind uwtable
define linkonce_odr void @_ZN5boost10shared_ptrIN8QuantLib24YoYInflationCouponPricerEEC2INS1_21InflationCouponPricerEEERKNS0_IT_EEPS2_(ptr noundef nonnull align 8 dereferenceable(16) %this, ptr noundef nonnull align 8 dereferenceable(16) %r, ptr noundef %p) unnamed_addr #1 comdat align 2 {
entry:
  %this.addr = alloca ptr, align 8
  %r.addr = alloca ptr, align 8
  %p.addr = alloca ptr, align 8
  store ptr %this, ptr %this.addr, align 8, !tbaa !3
  store ptr %r, ptr %r.addr, align 8, !tbaa !3
  store ptr %p, ptr %p.addr, align 8, !tbaa !3
  %this1 = load ptr, ptr %this.addr, align 8
  %px = getelementptr inbounds nuw %"class.boost::shared_ptr.32", ptr %this1, i32 0, i32 0
  %0 = load ptr, ptr %p.addr, align 8, !tbaa !3
  store ptr %0, ptr %px, align 8, !tbaa !47
  %pn = getelementptr inbounds nuw %"class.boost::shared_ptr.32", ptr %this1, i32 0, i32 1
  %1 = load ptr, ptr %r.addr, align 8, !tbaa !3
  %pn2 = getelementptr inbounds nuw %"class.boost::shared_ptr.29", ptr %1, i32 0, i32 1
  call void @_ZN5boost6detail12shared_countC2ERKS1_(ptr noundef nonnull align 8 dereferenceable(8) %pn, ptr noundef nonnull align 8 dereferenceable(8) %pn2) #14
  ret void
}

; Function Attrs: mustprogress nounwind uwtable
define linkonce_odr noundef ptr @_ZNK5boost10shared_ptrIN8QuantLib21InflationCouponPricerEE3getEv(ptr noundef nonnull align 8 dereferenceable(16) %this) #1 comdat align 2 {
entry:
  %this.addr = alloca ptr, align 8
  store ptr %this, ptr %this.addr, align 8, !tbaa !3
  %this1 = load ptr, ptr %this.addr, align 8
  %px = getelementptr inbounds nuw %"class.boost::shared_ptr.29", ptr %this1, i32 0, i32 0
  %0 = load ptr, ptr %px, align 8, !tbaa !110
  ret ptr %0
}

; Function Attrs: inlinehint mustprogress nounwind uwtable
define linkonce_odr void @_ZN5boost10shared_ptrIN8QuantLib24YoYInflationCouponPricerEED2Ev(ptr noundef nonnull align 8 dereferenceable(16) %this) unnamed_addr #5 comdat align 2 {
entry:
  %this.addr = alloca ptr, align 8
  store ptr %this, ptr %this.addr, align 8, !tbaa !3
  %this1 = load ptr, ptr %this.addr, align 8
  %pn = getelementptr inbounds nuw %"class.boost::shared_ptr.32", ptr %this1, i32 0, i32 1
  call void @_ZN5boost6detail12shared_countD2Ev(ptr noundef nonnull align 8 dereferenceable(8) %pn) #14
  ret void
}

; Function Attrs: mustprogress nounwind uwtable
define linkonce_odr noundef zeroext i1 @_ZNK5boost10shared_ptrIN8QuantLib24YoYInflationCouponPricerEEcvbEv(ptr noundef nonnull align 8 dereferenceable(16) %this) #1 comdat align 2 {
entry:
  %this.addr = alloca ptr, align 8
  store ptr %this, ptr %this.addr, align 8, !tbaa !3
  %this1 = load ptr, ptr %this.addr, align 8
  %px = getelementptr inbounds nuw %"class.boost::shared_ptr.32", ptr %this1, i32 0, i32 0
  %0 = load ptr, ptr %px, align 8, !tbaa !47
  %cmp = icmp ne ptr %0, null
  ret i1 %cmp
}

; Function Attrs: mustprogress nounwind uwtable
define linkonce_odr void @_ZN5boost20dynamic_pointer_castIN8QuantLib24YoYInflationCouponPricerENS1_21InflationCouponPricerEEENS_10shared_ptrIT_EERKNS4_IT0_EE(ptr dead_on_unwind noalias writable sret(%"class.boost::shared_ptr.32") align 8 %agg.result, ptr noundef nonnull align 8 dereferenceable(16) %r) #1 comdat {
entry:
  %result.ptr = alloca ptr, align 8
  %r.addr = alloca ptr, align 8
  %p = alloca ptr, align 8
  store ptr %agg.result, ptr %result.ptr, align 8
  store ptr %r, ptr %r.addr, align 8, !tbaa !3
  br i1 true, label %dynamic_cast.null, label %dynamic_cast.notnull

dynamic_cast.notnull:                             ; preds = %entry
  br label %dynamic_cast.end

dynamic_cast.null:                                ; preds = %entry
  br label %dynamic_cast.end

dynamic_cast.end:                                 ; preds = %dynamic_cast.null, %dynamic_cast.notnull
  call void @llvm.lifetime.start.p0(i64 8, ptr %p) #14
  %0 = load ptr, ptr %r.addr, align 8, !tbaa !3
  %call = call noundef ptr @_ZNK5boost10shared_ptrIN8QuantLib21InflationCouponPricerEE3getEv(ptr noundef nonnull align 8 dereferenceable(16) %0) #14
  %1 = icmp eq ptr %call, null
  br i1 %1, label %dynamic_cast.null2, label %dynamic_cast.notnull1

dynamic_cast.notnull1:                            ; preds = %dynamic_cast.end
  %2 = call ptr @__dynamic_cast(ptr %call, ptr @_ZTIN8QuantLib21InflationCouponPricerE, ptr @_ZTIN8QuantLib24YoYInflationCouponPricerE, i64 0) #14
  br label %dynamic_cast.end3

dynamic_cast.null2:                               ; preds = %dynamic_cast.end
  br label %dynamic_cast.end3

dynamic_cast.end3:                                ; preds = %dynamic_cast.null2, %dynamic_cast.notnull1
  %3 = phi ptr [ %2, %dynamic_cast.notnull1 ], [ null, %dynamic_cast.null2 ]
  store ptr %3, ptr %p, align 8, !tbaa !3
  %4 = load ptr, ptr %p, align 8, !tbaa !3
  %tobool = icmp ne ptr %4, null
  br i1 %tobool, label %cond.true, label %cond.false

cond.true:                                        ; preds = %dynamic_cast.end3
  %5 = load ptr, ptr %r.addr, align 8, !tbaa !3
  %6 = load ptr, ptr %p, align 8, !tbaa !3
  call void @_ZN5boost10shared_ptrIN8QuantLib24YoYInflationCouponPricerEEC2INS1_21InflationCouponPricerEEERKNS0_IT_EEPS2_(ptr noundef nonnull align 8 dereferenceable(16) %agg.result, ptr noundef nonnull align 8 dereferenceable(16) %5, ptr noundef %6) #14
  br label %cond.end

cond.false:                                       ; preds = %dynamic_cast.end3
  call void @_ZN5boost10shared_ptrIN8QuantLib24YoYInflationCouponPricerEEC2Ev(ptr noundef nonnull align 8 dereferenceable(16) %agg.result) #14
  br label %cond.end

cond.end:                                         ; preds = %cond.false, %cond.true
  call void @llvm.lifetime.end.p0(i64 8, ptr %p) #14
  ret void
}

; Function Attrs: mustprogress nounwind uwtable
define noundef zeroext i1 @_ZNK8QuantLib18YoYInflationCoupon15checkPricerImplERKN5boost10shared_ptrINS_21InflationCouponPricerEEE(ptr noundef nonnull align 8 dereferenceable(192) %this, ptr noundef nonnull align 8 dereferenceable(16) %pricer) unnamed_addr #1 align 2 {
entry:
  %this.addr = alloca ptr, align 8
  %pricer.addr = alloca ptr, align 8
  %ref.tmp = alloca %"class.boost::shared_ptr.32", align 8
  store ptr %this, ptr %this.addr, align 8, !tbaa !3
  store ptr %pricer, ptr %pricer.addr, align 8, !tbaa !3
  call void @llvm.lifetime.start.p0(i64 16, ptr %ref.tmp) #14
  %0 = load ptr, ptr %pricer.addr, align 8, !tbaa !3
  call void @_ZN5boost20dynamic_pointer_castIN8QuantLib24YoYInflationCouponPricerENS1_21InflationCouponPricerEEENS_10shared_ptrIT_EERKNS4_IT0_EE(ptr dead_on_unwind writable sret(%"class.boost::shared_ptr.32") align 8 %ref.tmp, ptr noundef nonnull align 8 dereferenceable(16) %0) #14
  %call = call noundef zeroext i1 @_ZNK5boost10shared_ptrIN8QuantLib24YoYInflationCouponPricerEEcvbEv(ptr noundef nonnull align 8 dereferenceable(16) %ref.tmp) #14
  call void @_ZN5boost10shared_ptrIN8QuantLib24YoYInflationCouponPricerEED2Ev(ptr noundef nonnull align 8 dereferenceable(16) %ref.tmp) #14
  call void @llvm.lifetime.end.p0(i64 16, ptr %ref.tmp) #14
  ret i1 %call
}