; Function Attrs: mustprogress nounwind uwtable
define noundef zeroext i1 @_ZNK8QuantLib18YoYInflationCoupon15checkPricerImplERKN5boost10shared_ptrINS_21InflationCouponPricerEEE(ptr nocapture nonnull readnone align 8 %this, ptr nocapture noundef nonnull readonly align 8 dereferenceable(16) %pricer) unnamed_addr #10 align 2 personality ptr @__gxx_personality_v0 {
entry:
  %0 = load ptr, ptr %pricer, align 8, !tbaa !65, !noalias !66
  %1 = icmp eq ptr %0, null
  br i1 %1, label %_ZN5boost10shared_ptrIN8QuantLib24YoYInflationCouponPricerEED2Ev.exit, label %dynamic_cast.end3.i

dynamic_cast.end3.i:                              ; preds = %entry
  %2 = tail call ptr @__dynamic_cast(ptr nonnull %0, ptr nonnull @_ZTIN8QuantLib21InflationCouponPricerE, ptr nonnull @_ZTIN8QuantLib24YoYInflationCouponPricerE, i64 0) #29, !noalias !66
  %tobool.not.i = icmp eq ptr %2, null
  br i1 %tobool.not.i, label %_ZN5boost10shared_ptrIN8QuantLib24YoYInflationCouponPricerEED2Ev.exit, label %cond.true.i

cond.true.i:                                      ; preds = %dynamic_cast.end3.i
  %pn2.i.i = getelementptr inbounds nuw i8, ptr %pricer, i64 8
  %3 = load ptr, ptr %pn2.i.i, align 8, !tbaa !48, !noalias !66
  %cmp.not.i.i.i = icmp eq ptr %3, null
  br i1 %cmp.not.i.i.i, label %_ZN5boost10shared_ptrIN8QuantLib24YoYInflationCouponPricerEED2Ev.exit, label %if.then.i.i

if.then.i.i:                                      ; preds = %cond.true.i
  %use_count_.i.i.i.i = getelementptr inbounds nuw i8, ptr %3, i64 8
  %4 = atomicrmw add ptr %use_count_.i.i.i.i, i32 1 monotonic, align 4, !noalias !66
  %5 = atomicrmw sub ptr %use_count_.i.i.i.i, i32 1 acq_rel, align 4
  %cmp.i.i.i = icmp eq i32 %5, 1
  br i1 %cmp.i.i.i, label %if.then.i.i.i1, label %_ZN5boost10shared_ptrIN8QuantLib24YoYInflationCouponPricerEED2Ev.exit

if.then.i.i.i1:                                   ; preds = %if.then.i.i
  %vtable.i.i.i = load ptr, ptr %3, align 8, !tbaa !33
  %vfn.i.i.i = getelementptr inbounds i8, ptr %vtable.i.i.i, i64 16
  %6 = load ptr, ptr %vfn.i.i.i, align 8
  invoke void %6(ptr noundef nonnull align 8 dereferenceable(16) %3)
          to label %.noexc.i.i unwind label %terminate.lpad.i.i

.noexc.i.i:                                       ; preds = %if.then.i.i.i1
  %weak_count_.i.i.i.i = getelementptr inbounds nuw i8, ptr %3, i64 12
  %7 = atomicrmw sub ptr %weak_count_.i.i.i.i, i32 1 acq_rel, align 4
  %cmp.i.i.i.i = icmp eq i32 %7, 1
  br i1 %cmp.i.i.i.i, label %if.then.i.i.i.i, label %_ZN5boost10shared_ptrIN8QuantLib24YoYInflationCouponPricerEED2Ev.exit

if.then.i.i.i.i:                                  ; preds = %.noexc.i.i
  %vtable.i.i.i.i = load ptr, ptr %3, align 8, !tbaa !33
  %vfn.i.i.i.i = getelementptr inbounds i8, ptr %vtable.i.i.i.i, i64 24
  %8 = load ptr, ptr %vfn.i.i.i.i, align 8
  invoke void %8(ptr noundef nonnull align 8 dereferenceable(16) %3)
          to label %_ZN5boost10shared_ptrIN8QuantLib24YoYInflationCouponPricerEED2Ev.exit unwind label %terminate.lpad.i.i

terminate.lpad.i.i:                               ; preds = %if.then.i.i.i.i, %if.then.i.i.i1
  %9 = landingpad { ptr, i32 }
          catch ptr null
  %10 = extractvalue { ptr, i32 } %9, 0
  tail call void @__clang_call_terminate(ptr %10) #30
  unreachable

_ZN5boost10shared_ptrIN8QuantLib24YoYInflationCouponPricerEED2Ev.exit: ; preds = %entry, %dynamic_cast.end3.i, %cond.true.i, %if.then.i.i, %.noexc.i.i, %if.then.i.i.i.i
  %cmp.i6 = phi i1 [ true, %if.then.i.i ], [ true, %.noexc.i.i ], [ true, %if.then.i.i.i.i ], [ false, %entry ], [ false, %dynamic_cast.end3.i ], [ true, %cond.true.i ]
  ret i1 %cmp.i6
}